; ModuleID = 'source-C-CXX/27/196.c'
source_filename = "source-C-CXX/27/196.c"
target datalayout = "e-m:e-p270:32:32-p271:32:32-p272:64:64-i64:64-f80:128-n8:16:32:64-S128"
target triple = "x86_64-pc-linux-gnu"

@.str = private unnamed_addr constant [3 x i8] c"%d\00", align 1
@.str.1 = private unnamed_addr constant [4 x i8] c"%d,\00", align 1

; Function Attrs: nounwind sspstrong uwtable
define dso_local void @main() local_unnamed_addr #0 {
  %1 = alloca [3000 x i8], align 16
  %2 = alloca [300 x i32], align 16
  %3 = getelementptr inbounds [3000 x i8], [3000 x i8]* %1, i64 0, i64 0
  call void @llvm.lifetime.start.p0i8(i64 3000, i8* nonnull %3) #6
  %4 = bitcast [300 x i32]* %2 to i8*
  call void @llvm.lifetime.start.p0i8(i64 1200, i8* nonnull %4) #6
  call void @llvm.memset.p0i8.i64(i8* noundef nonnull align 16 dereferenceable(1200) %4, i8 0, i64 1200, i1 false)
  %5 = call i32 (i8*, ...) bitcast (i32 (...)* @gets to i32 (i8*, ...)*)(i8* nonnull %3) #6
  %6 = call i64 @strlen(i8* noundef nonnull %3) #7
  %7 = trunc i64 %6 to i32
  %8 = icmp sgt i32 %7, 0
  br i1 %8, label %9, label %14

9:                                                ; preds = %0
  %10 = shl i64 %6, 32
  %11 = ashr exact i64 %10, 32
  br label %20

12:                                               ; preds = %48
  %13 = icmp slt i32 %49, 0
  br i1 %13, label %63, label %14

14:                                               ; preds = %0, %12
  %15 = phi i32 [ %49, %12 ], [ 0, %0 ]
  %16 = zext i32 %15 to i64
  %17 = add nuw i32 %15, 1
  %18 = zext i32 %17 to i64
  %19 = getelementptr inbounds [300 x i32], [300 x i32]* %2, i64 0, i64 %16
  br label %53

20:                                               ; preds = %9, %48
  %21 = phi i32 [ %51, %48 ], [ 0, %9 ]
  %22 = phi i32 [ %49, %48 ], [ 0, %9 ]
  %23 = sext i32 %21 to i64
  %24 = getelementptr inbounds [3000 x i8], [3000 x i8]* %1, i64 0, i64 %23
  %25 = load i8, i8* %24, align 1, !tbaa !5
  %26 = icmp eq i8 %25, 32
  br i1 %26, label %32, label %27

27:                                               ; preds = %20
  %28 = sext i32 %22 to i64
  %29 = getelementptr inbounds [300 x i32], [300 x i32]* %2, i64 0, i64 %28
  %30 = load i32, i32* %29, align 4, !tbaa !8
  %31 = add nsw i32 %30, 1
  store i32 %31, i32* %29, align 4, !tbaa !8
  br label %48

32:                                               ; preds = %20
  %33 = add nsw i32 %22, 1
  %34 = icmp slt i32 %21, %7
  br i1 %34, label %35, label %45

35:                                               ; preds = %32, %39
  %36 = phi i64 [ %37, %39 ], [ %23, %32 ]
  %37 = add nsw i64 %36, 1
  %38 = icmp eq i64 %37, %11
  br i1 %38, label %45, label %39, !llvm.loop !10

39:                                               ; preds = %35
  %40 = getelementptr inbounds [3000 x i8], [3000 x i8]* %1, i64 0, i64 %37
  %41 = load i8, i8* %40, align 1, !tbaa !5
  %42 = icmp eq i8 %41, 32
  br i1 %42, label %35, label %43

43:                                               ; preds = %39
  %44 = trunc i64 %37 to i32
  br label %45

45:                                               ; preds = %35, %43, %32
  %46 = phi i32 [ %21, %32 ], [ %44, %43 ], [ %7, %35 ]
  %47 = add nsw i32 %46, -1
  br label %48

48:                                               ; preds = %27, %45
  %49 = phi i32 [ %33, %45 ], [ %22, %27 ]
  %50 = phi i32 [ %47, %45 ], [ %21, %27 ]
  %51 = add nsw i32 %50, 1
  %52 = icmp slt i32 %51, %7
  br i1 %52, label %20, label %12, !llvm.loop !12

53:                                               ; preds = %14, %53
  %54 = phi i64 [ 0, %14 ], [ %61, %53 ]
  %55 = icmp eq i64 %54, %16
  %56 = getelementptr inbounds [300 x i32], [300 x i32]* %2, i64 0, i64 %54
  %57 = select i1 %55, i32* %19, i32* %56
  %58 = select i1 %55, i8* getelementptr inbounds ([3 x i8], [3 x i8]* @.str, i64 0, i64 0), i8* getelementptr inbounds ([4 x i8], [4 x i8]* @.str.1, i64 0, i64 0)
  %59 = load i32, i32* %57, align 4, !tbaa !8
  %60 = call i32 (i8*, ...) @printf(i8* nonnull dereferenceable(1) %58, i32 %59)
  %61 = add nuw nsw i64 %54, 1
  %62 = icmp eq i64 %61, %18
  br i1 %62, label %63, label %53, !llvm.loop !13

63:                                               ; preds = %53, %12
  call void @llvm.lifetime.end.p0i8(i64 1200, i8* nonnull %4) #6
  call void @llvm.lifetime.end.p0i8(i64 3000, i8* nonnull %3) #6
  ret void
}

; Function Attrs: argmemonly mustprogress nofree nosync nounwind willreturn
declare void @llvm.lifetime.start.p0i8(i64 immarg, i8* nocapture) #1

; Function Attrs: argmemonly mustprogress nofree nounwind willreturn writeonly
declare void @llvm.memset.p0i8.i64(i8* nocapture writeonly, i8, i64, i1 immarg) #2

declare i32 @gets(...) local_unnamed_addr #3

; Function Attrs: argmemonly mustprogress nofree nounwind readonly willreturn
declare i64 @strlen(i8* nocapture) local_unnamed_addr #4

; Function Attrs: nofree nounwind
declare noundef i32 @printf(i8* nocapture noundef readonly, ...) local_unnamed_addr #5

; Function Attrs: argmemonly mustprogress nofree nosync nounwind willreturn
declare void @llvm.lifetime.end.p0i8(i64 immarg, i8* nocapture) #1


!llvm.module.flags = !{!0, !1, !2, !3}
!llvm.ident = !{!4}

!0 = !{i32 1, !"wchar_size", i32 4}
!1 = !{i32 7, !"PIC Level", i32 2}
!2 = !{i32 7, !"PIE Level", i32 2}
!3 = !{i32 7, !"uwtable", i32 1}
!4 = !{!"clang version 13.0.0"}
!5 = !{!6, !6, i64 0}
!6 = !{!"omnipotent char", !7, i64 0}
!7 = !{!"Simple C/C++ TBAA"}
!8 = !{!9, !9, i64 0}
!9 = !{!"int", !6, i64 0}
!10 = distinct !{!10, !11}
!11 = !{!"llvm.loop.mustprogress"}
!12 = distinct !{!12, !11}
!13 = distinct !{!13, !11}
